target datalayout = "e-m:e-p270:32:32-p271:32:32-p272:64:64-i64:64-i128:128-f80:128-n8:16:32:64-S128"
target triple = "x86_64-pc-linux-gnu"

%"class.OpenImageIO::v3_1_0::ustring" = type { ptr }

@_ZN11OpenImageIO6v3_1_012_GLOBAL__N_114wrap_type_nameE = internal global [8 x %"class.OpenImageIO::v3_1_0::ustring"] zeroinitializer, align 16

; Function Attrs: mustprogress nounwind uwtable
define linkonce_odr noundef ptr @_ZNK11OpenImageIO6v3_1_07ustring5c_strEv(ptr noundef nonnull align 8 dereferenceable(8) %0) #5 comdat align 2 {
  %2 = alloca ptr, align 8
  store ptr %0, ptr %2, align 8, !tbaa !3
  %3 = load ptr, ptr %2, align 8
  %4 = getelementptr inbounds nuw %"class.OpenImageIO::v3_1_0::ustring", ptr %3, i32 0, i32 0
  %5 = load ptr, ptr %4, align 8, !tbaa !10
  ret ptr %5
}

; Function Attrs: mustprogress nounwind uwtable
define noundef zeroext i8 @_ZN11OpenImageIO6v3_1_03Tex15decode_wrapmodeEPKc(ptr noundef %0) #5 {
  %2 = alloca i8, align 1
  %3 = alloca ptr, align 8
  %4 = alloca i32, align 4
  %5 = alloca i32, align 4
  store ptr %0, ptr %3, align 8, !tbaa !8
  call void @llvm.lifetime.start.p0(i64 4, ptr %4) #3
  store i32 0, ptr %4, align 4, !tbaa !17
  br label %6

6:                                                ; preds = %22, %1
  %7 = load i32, ptr %4, align 4, !tbaa !17
  %8 = icmp slt i32 %7, 7
  br i1 %8, label %10, label %9

9:                                                ; preds = %6
  store i32 2, ptr %5, align 4
  br label %25

10:                                               ; preds = %6
  %11 = load ptr, ptr %3, align 8, !tbaa !8
  %12 = load i32, ptr %4, align 4, !tbaa !17
  %13 = sext i32 %12 to i64
  %14 = getelementptr inbounds [8 x %"class.OpenImageIO::v3_1_0::ustring"], ptr @_ZN11OpenImageIO6v3_1_012_GLOBAL__N_114wrap_type_nameE, i64 0, i64 %13
  %15 = call noundef ptr @_ZNK11OpenImageIO6v3_1_07ustring5c_strEv(ptr noundef nonnull align 8 dereferenceable(8) %14) #3
  %16 = call i32 @strcmp(ptr noundef %11, ptr noundef %15) #10
  %17 = icmp ne i32 %16, 0
  br i1 %17, label %21, label %18

18:                                               ; preds = %10
  %19 = load i32, ptr %4, align 4, !tbaa !17
  %20 = trunc i32 %19 to i8
  store i8 %20, ptr %2, align 1
  store i32 1, ptr %5, align 4
  br label %25

21:                                               ; preds = %10
  br label %22

22:                                               ; preds = %21
  %23 = load i32, ptr %4, align 4, !tbaa !17
  %24 = add nsw i32 %23, 1
  store i32 %24, ptr %4, align 4, !tbaa !17
  br label %6, !llvm.loop !19

25:                                               ; preds = %18, %9
  call void @llvm.lifetime.end.p0(i64 4, ptr %4) #3
  %26 = load i32, ptr %5, align 4
  switch i32 %26, label %30 [
    i32 2, label %27
    i32 1, label %28
  ]

27:                                               ; preds = %25
  store i8 0, ptr %2, align 1
  br label %28

28:                                               ; preds = %27, %25
  %29 = load i8, ptr %2, align 1
  ret i8 %29

30:                                               ; preds = %25
  unreachable
}

; Function Attrs: mustprogress nounwind uwtable
define void @_ZN11OpenImageIO6v3_1_03Tex15parse_wrapmodesEPKcRNS1_4WrapES5_(ptr noundef %0, ptr noundef nonnull align 1 dereferenceable(1) %1, ptr noundef nonnull align 1 dereferenceable(1) %2) #5 {
  %4 = alloca ptr, align 8
  %5 = alloca ptr, align 8
  %6 = alloca ptr, align 8
  %7 = alloca ptr, align 8
  %8 = alloca ptr, align 8
  %9 = alloca i32, align 4
  store ptr %0, ptr %4, align 8, !tbaa !8
  store ptr %1, ptr %5, align 8, !tbaa !23
  store ptr %2, ptr %6, align 8, !tbaa !23
  call void @llvm.lifetime.start.p0(i64 8, ptr %7) #3
  %10 = load ptr, ptr %4, align 8, !tbaa !8
  %11 = call i64 @strlen(ptr noundef %10) #10
  %12 = add i64 %11, 1
  %13 = icmp ne i64 %12, 0
  br i1 %13, label %14, label %20

14:                                               ; preds = %3
  %15 = load ptr, ptr %4, align 8, !tbaa !8
  %16 = call i64 @strlen(ptr noundef %15) #10
  %17 = add i64 %16, 1
  %18 = mul i64 %17, 1
  %19 = alloca i8, i64 %18, align 16
  br label %21

20:                                               ; preds = %3
  br label %21

21:                                               ; preds = %20, %14
  %22 = phi ptr [ %19, %14 ], [ null, %20 ]
  store ptr %22, ptr %7, align 8, !tbaa !8
  call void @llvm.lifetime.start.p0(i64 8, ptr %8) #3
  call void @llvm.lifetime.start.p0(i64 4, ptr %9) #3
  store i32 0, ptr %9, align 4, !tbaa !17
  br label %23

23:                                               ; preds = %50, %21
  %24 = load ptr, ptr %4, align 8, !tbaa !8
  %25 = load i32, ptr %9, align 4, !tbaa !17
  %26 = sext i32 %25 to i64
  %27 = getelementptr inbounds i8, ptr %24, i64 %26
  %28 = load i8, ptr %27, align 1, !tbaa !24
  %29 = icmp ne i8 %28, 0
  br i1 %29, label %30, label %38

30:                                               ; preds = %23
  %31 = load ptr, ptr %4, align 8, !tbaa !8
  %32 = load i32, ptr %9, align 4, !tbaa !17
  %33 = sext i32 %32 to i64
  %34 = getelementptr inbounds i8, ptr %31, i64 %33
  %35 = load i8, ptr %34, align 1, !tbaa !24
  %36 = sext i8 %35 to i32
  %37 = icmp ne i32 %36, 44
  br label %38

38:                                               ; preds = %30, %23
  %39 = phi i1 [ false, %23 ], [ %37, %30 ]
  br i1 %39, label %40, label %53

40:                                               ; preds = %38
  %41 = load ptr, ptr %4, align 8, !tbaa !8
  %42 = load i32, ptr %9, align 4, !tbaa !17
  %43 = sext i32 %42 to i64
  %44 = getelementptr inbounds i8, ptr %41, i64 %43
  %45 = load i8, ptr %44, align 1, !tbaa !24
  %46 = load ptr, ptr %7, align 8, !tbaa !8
  %47 = load i32, ptr %9, align 4, !tbaa !17
  %48 = sext i32 %47 to i64
  %49 = getelementptr inbounds i8, ptr %46, i64 %48
  store i8 %45, ptr %49, align 1, !tbaa !24
  br label %50

50:                                               ; preds = %40
  %51 = load i32, ptr %9, align 4, !tbaa !17
  %52 = add nsw i32 %51, 1
  store i32 %52, ptr %9, align 4, !tbaa !17
  br label %23, !llvm.loop !25

53:                                               ; preds = %38
  %54 = load ptr, ptr %7, align 8, !tbaa !8
  %55 = load i32, ptr %9, align 4, !tbaa !17
  %56 = sext i32 %55 to i64
  %57 = getelementptr inbounds i8, ptr %54, i64 %56
  store i8 0, ptr %57, align 1, !tbaa !24
  %58 = load ptr, ptr %4, align 8, !tbaa !8
  %59 = load i32, ptr %9, align 4, !tbaa !17
  %60 = sext i32 %59 to i64
  %61 = getelementptr inbounds i8, ptr %58, i64 %60
  %62 = load i8, ptr %61, align 1, !tbaa !24
  %63 = sext i8 %62 to i32
  %64 = icmp eq i32 %63, 44
  br i1 %64, label %65, label %71

65:                                               ; preds = %53
  %66 = load ptr, ptr %4, align 8, !tbaa !8
  %67 = load i32, ptr %9, align 4, !tbaa !17
  %68 = sext i32 %67 to i64
  %69 = getelementptr inbounds i8, ptr %66, i64 %68
  %70 = getelementptr inbounds i8, ptr %69, i64 1
  store ptr %70, ptr %8, align 8, !tbaa !8
  br label %73

71:                                               ; preds = %53
  %72 = load ptr, ptr %7, align 8, !tbaa !8
  store ptr %72, ptr %8, align 8, !tbaa !8
  br label %73

73:                                               ; preds = %71, %65
  %74 = load ptr, ptr %7, align 8, !tbaa !8
  %75 = call noundef zeroext i8 @_ZN11OpenImageIO6v3_1_03Tex15decode_wrapmodeEPKc(ptr noundef %74)
  %76 = load ptr, ptr %5, align 8, !tbaa !23
  store i8 %75, ptr %76, align 1, !tbaa !26
  %77 = load ptr, ptr %8, align 8, !tbaa !8
  %78 = call noundef zeroext i8 @_ZN11OpenImageIO6v3_1_03Tex15decode_wrapmodeEPKc(ptr noundef %77)
  %79 = load ptr, ptr %6, align 8, !tbaa !23
  store i8 %78, ptr %79, align 1, !tbaa !26
  call void @llvm.lifetime.end.p0(i64 4, ptr %9) #3
  call void @llvm.lifetime.end.p0(i64 8, ptr %8) #3
  call void @llvm.lifetime.end.p0(i64 8, ptr %7) #3
  ret void
}