; Function Attrs: mustprogress nofree nounwind memory(readwrite, inaccessiblemem: none) uwtable
define void @_ZN11OpenImageIO6v3_1_03Tex15parse_wrapmodesEPKcRNS1_4WrapES5_(ptr noundef readonly captures(none) %0, ptr noundef nonnull writeonly align 1 captures(none) dereferenceable(1) %1, ptr noundef nonnull writeonly align 1 captures(none) dereferenceable(1) %2) local_unnamed_addr #7 {
  %4 = tail call i64 @strlen(ptr noundef nonnull dereferenceable(1) %0) #9
  %5 = add i64 %4, 1
  %.not = icmp eq i64 %5, 0
  br i1 %.not, label %8, label %6

6:                                                ; preds = %3
  %7 = alloca i8, i64 %5, align 16
  br label %8

8:                                                ; preds = %3, %6
  %9 = phi ptr [ %7, %6 ], [ null, %3 ]
  br label %10

10:                                               ; preds = %13, %8
  %indvars.iv = phi i64 [ %indvars.iv.next, %13 ], [ 0, %8 ]
  %11 = getelementptr inbounds nuw i8, ptr %0, i64 %indvars.iv
  %12 = load i8, ptr %11, align 1, !tbaa !16
  switch i8 %12, label %13 [
    i8 0, label %.critedge
    i8 44, label %.critedge
  ]

13:                                               ; preds = %10
  %14 = getelementptr inbounds nuw i8, ptr %9, i64 %indvars.iv
  store i8 %12, ptr %14, align 1, !tbaa !16
  %indvars.iv.next = add nuw nsw i64 %indvars.iv, 1
  br label %10, !llvm.loop !17

.critedge:                                        ; preds = %10, %10
  %15 = getelementptr inbounds nuw i8, ptr %0, i64 %indvars.iv
  %16 = getelementptr inbounds nuw i8, ptr %9, i64 %indvars.iv
  store i8 0, ptr %16, align 1, !tbaa !16
  %17 = icmp eq i8 %12, 44
  %18 = getelementptr inbounds nuw i8, ptr %15, i64 1
  %.021 = select i1 %17, ptr %18, ptr %9
  br label %19

19:                                               ; preds = %25, %.critedge
  %indvars.iv.i = phi i64 [ 0, %.critedge ], [ %indvars.iv.next.i, %25 ]
  %20 = getelementptr inbounds nuw [8 x %"class.OpenImageIO::v3_1_0::ustring"], ptr @_ZN11OpenImageIO6v3_1_012_GLOBAL__N_114wrap_type_nameE, i64 0, i64 %indvars.iv.i
  %21 = load ptr, ptr %20, align 8, !tbaa !3
  %22 = call i32 @strcmp(ptr noundef nonnull readonly dereferenceable(1) %9, ptr noundef nonnull dereferenceable(1) %21) #9
  %.not.i = icmp eq i32 %22, 0
  br i1 %.not.i, label %23, label %25

23:                                               ; preds = %19
  %24 = trunc i64 %indvars.iv.i to i8
  br label %_ZN11OpenImageIO6v3_1_03Tex15decode_wrapmodeEPKc.exit

25:                                               ; preds = %19
  %indvars.iv.next.i = add nuw nsw i64 %indvars.iv.i, 1
  %exitcond.i = icmp eq i64 %indvars.iv.next.i, 7
  br i1 %exitcond.i, label %_ZN11OpenImageIO6v3_1_03Tex15decode_wrapmodeEPKc.exit, label %19, !llvm.loop !9

_ZN11OpenImageIO6v3_1_03Tex15decode_wrapmodeEPKc.exit: ; preds = %25, %23
  %spec.select.i = phi i8 [ %24, %23 ], [ 0, %25 ]
  store i8 %spec.select.i, ptr %1, align 1, !tbaa !18
  br label %26

26:                                               ; preds = %32, %_ZN11OpenImageIO6v3_1_03Tex15decode_wrapmodeEPKc.exit
  %indvars.iv.i26 = phi i64 [ 0, %_ZN11OpenImageIO6v3_1_03Tex15decode_wrapmodeEPKc.exit ], [ %indvars.iv.next.i28, %32 ]
  %27 = getelementptr inbounds nuw [8 x %"class.OpenImageIO::v3_1_0::ustring"], ptr @_ZN11OpenImageIO6v3_1_012_GLOBAL__N_114wrap_type_nameE, i64 0, i64 %indvars.iv.i26
  %28 = load ptr, ptr %27, align 8, !tbaa !3
  %29 = call i32 @strcmp(ptr noundef nonnull readonly dereferenceable(1) %.021, ptr noundef nonnull dereferenceable(1) %28) #9
  %.not.i27 = icmp eq i32 %29, 0
  br i1 %.not.i27, label %30, label %32

30:                                               ; preds = %26
  %31 = trunc i64 %indvars.iv.i26 to i8
  br label %_ZN11OpenImageIO6v3_1_03Tex15decode_wrapmodeEPKc.exit31

32:                                               ; preds = %26
  %indvars.iv.next.i28 = add nuw nsw i64 %indvars.iv.i26, 1
  %exitcond.i29 = icmp eq i64 %indvars.iv.next.i28, 7
  br i1 %exitcond.i29, label %_ZN11OpenImageIO6v3_1_03Tex15decode_wrapmodeEPKc.exit31, label %26, !llvm.loop !9

_ZN11OpenImageIO6v3_1_03Tex15decode_wrapmodeEPKc.exit31: ; preds = %32, %30
  %spec.select.i30 = phi i8 [ %31, %30 ], [ 0, %32 ]
  store i8 %spec.select.i30, ptr %2, align 1, !tbaa !18
  ret void
}